(lp0
(dp1
S'code'
p2
S'2885-2'
p3
sa(dp4
g2
S'1751-7'
p5
sa(dp6
g2
S'10834-0'
p7
sa(dp8
g2
S'1759-0'
p9
sa(dp10
g2
S'1975-2'
p11
sa(dp12
g2
S'1968-7'
p13
sa(dp14
g2
S'1971-1'
p15
sa(dp16
g2
S'6768-6'
p17
sa(dp18
g2
S'1920-8'
p19
sa(dp20
g2
S'1742-6'
p21
sa(dp22
g2
S'20394-3'
p23
sa(dp24
g2
S'20392-7'
p25
sa(dp26
g2
S'20393-5'
p27
sa.